; Function Attrs: null_pointer_is_valid sspstrong uwtable
define internal i32 @dissect_ICBAAccoMgt_GetDiagnosis_resp(ptr noundef %0, i32 noundef %1, ptr noundef %2, ptr noundef %3, ptr noundef %4, ptr noundef %5) #0 {
  %7 = alloca i32, align 4
  call void @llvm.lifetime.start.p0(i64 4, ptr nonnull %7) #12
  %8 = tail call i32 @dissect_dcom_that(ptr noundef %0, i32 noundef %1, ptr noundef %2, ptr noundef %3, ptr noundef %4, ptr noundef %5)
  %9 = load i32, ptr @hf_cba_acco_diag_out_length, align 4
  %10 = call i32 @dissect_ndr_uint32(ptr noundef %0, i32 noundef %8, ptr noundef %2, ptr noundef %3, ptr noundef %4, ptr noundef %5, i32 noundef %9, ptr noundef nonnull %7)
  %11 = load i32, ptr %7, align 4
  %.not = icmp eq i32 %11, 0
  br i1 %.not, label %15, label %12

12:                                               ; preds = %6
  %13 = load i32, ptr @hf_cba_acco_diag_data, align 4
  %14 = call ptr @proto_tree_add_item(ptr noundef %3, i32 noundef %13, ptr noundef %0, i32 noundef %10, i32 noundef %11, i32 noundef 0)
  %.pre = load i32, ptr %7, align 4
  br label %15

15:                                               ; preds = %12, %6
  %16 = phi i32 [ %.pre, %12 ], [ 0, %6 ]
  %17 = getelementptr inbounds nuw i8, ptr %2, i64 8
  %18 = load ptr, ptr %17, align 8
  call void (ptr, i32, ptr, ...) @col_append_fstr(ptr noundef %18, i32 noundef 25, ptr noundef nonnull @.str.279, i32 noundef %16)
  call void @llvm.lifetime.end.p0(i64 4, ptr nonnull %7) #12
  ret i32 %10
}